; Function Attrs: nounwind sspstrong uwtable
define hidden void @rb_vm_lock_body() local_unnamed_addr #2 {
  %1 = load ptr, ptr @ruby_current_vm_ptr, align 8, !tbaa !7
  %2 = load ptr, ptr @ruby_single_main_ractor, align 8, !tbaa !37
  %.not.i.i = icmp eq ptr %2, null
  br i1 %.not.i.i, label %3, label %rb_current_ractor.exit

3:                                                ; preds = %0
  %4 = tail call align 8 ptr @llvm.threadlocal.address.p0(ptr align 8 @ruby_current_ec)
  %5 = load ptr, ptr %4, align 8, !tbaa !38
  %6 = getelementptr i8, ptr %5, i64 48
  %.val.i.i = load ptr, ptr %6, align 8, !tbaa !40
  %.not.i.i.i = icmp eq ptr %.val.i.i, null
  br i1 %.not.i.i.i, label %rb_current_ractor.exit, label %7

7:                                                ; preds = %3
  %8 = getelementptr inbounds nuw i8, ptr %.val.i.i, i64 24
  %9 = load ptr, ptr %8, align 8, !tbaa !48
  br label %rb_current_ractor.exit

rb_current_ractor.exit:                           ; preds = %0, %3, %7
  %.0.i.i = phi ptr [ %2, %0 ], [ %9, %7 ], [ null, %3 ]
  %10 = getelementptr inbounds nuw i8, ptr %1, i64 96
  tail call fastcc void @vm_lock_enter(ptr noundef %.0.i.i, ptr noundef %1, i1 noundef zeroext false, i1 noundef zeroext false, ptr noundef nonnull %10)
  ret void
}